; Function Attrs: mustprogress nounwind uwtable
define dso_local void @_ZN3net23QuicBufferedPacketStore18BufferedPacketListD2Ev(ptr noundef nonnull readonly align 8 dereferenceable(32) %this) unnamed_addr #3 align 2 personality ptr @__gxx_personality_v0 {
entry:
  %0 = load ptr, ptr %this, align 8
  %cmp.not4.i.i.i = icmp eq ptr %0, %this
  br i1 %cmp.not4.i.i.i, label %_ZNSt7__cxx114listIN3net23QuicBufferedPacketStore14BufferedPacketESaIS3_EED2Ev.exit, label %while.body.i.i.i

while.body.i.i.i:                                 ; preds = %entry, %_ZNSt16allocator_traitsISaISt10_List_nodeIN3net23QuicBufferedPacketStore14BufferedPacketEEEE7destroyIS3_EEvRS5_PT_.exit.i.i.i
  %__cur.05.i.i.i = phi ptr [ %1, %_ZNSt16allocator_traitsISaISt10_List_nodeIN3net23QuicBufferedPacketStore14BufferedPacketEEEE7destroyIS3_EEvRS5_PT_.exit.i.i.i ], [ %0, %entry ]
  %1 = load ptr, ptr %__cur.05.i.i.i, align 8
  %_M_storage.i.i.i.i = getelementptr inbounds i8, ptr %__cur.05.i.i.i, i64 16
  %client_address.i.i.i.i.i.i = getelementptr inbounds i8, ptr %__cur.05.i.i.i, i64 56
  tail call void @_ZN3net10IPEndPointD1Ev(ptr noundef nonnull align 8 dereferenceable(26) %client_address.i.i.i.i.i.i) #17
  %server_address.i.i.i.i.i.i = getelementptr inbounds i8, ptr %__cur.05.i.i.i, i64 24
  tail call void @_ZN3net10IPEndPointD1Ev(ptr noundef nonnull align 8 dereferenceable(26) %server_address.i.i.i.i.i.i) #17
  %2 = load ptr, ptr %_M_storage.i.i.i.i, align 8
  %cmp.not.i.i.i.i.i.i.i = icmp eq ptr %2, null
  br i1 %cmp.not.i.i.i.i.i.i.i, label %_ZNSt16allocator_traitsISaISt10_List_nodeIN3net23QuicBufferedPacketStore14BufferedPacketEEEE7destroyIS3_EEvRS5_PT_.exit.i.i.i, label %_ZNKSt14default_deleteIN3net18QuicReceivedPacketEEclEPS1_.exit.i.i.i.i.i.i.i

_ZNKSt14default_deleteIN3net18QuicReceivedPacketEEclEPS1_.exit.i.i.i.i.i.i.i: ; preds = %while.body.i.i.i
  %vtable.i.i.i.i.i.i.i.i = load ptr, ptr %2, align 8
  %vfn.i.i.i.i.i.i.i.i = getelementptr inbounds i8, ptr %vtable.i.i.i.i.i.i.i.i, i64 8
  %3 = load ptr, ptr %vfn.i.i.i.i.i.i.i.i, align 8
  tail call void %3(ptr noundef nonnull align 8 dereferenceable(45) %2) #17
  br label %_ZNSt16allocator_traitsISaISt10_List_nodeIN3net23QuicBufferedPacketStore14BufferedPacketEEEE7destroyIS3_EEvRS5_PT_.exit.i.i.i

_ZNSt16allocator_traitsISaISt10_List_nodeIN3net23QuicBufferedPacketStore14BufferedPacketEEEE7destroyIS3_EEvRS5_PT_.exit.i.i.i: ; preds = %_ZNKSt14default_deleteIN3net18QuicReceivedPacketEEclEPS1_.exit.i.i.i.i.i.i.i, %while.body.i.i.i
  tail call void @_ZdlPv(ptr noundef nonnull %__cur.05.i.i.i) #18
  %cmp.not.i.i.i = icmp eq ptr %1, %this
  br i1 %cmp.not.i.i.i, label %_ZNSt7__cxx114listIN3net23QuicBufferedPacketStore14BufferedPacketESaIS3_EED2Ev.exit, label %while.body.i.i.i, !llvm.loop !5

_ZNSt7__cxx114listIN3net23QuicBufferedPacketStore14BufferedPacketESaIS3_EED2Ev.exit: ; preds = %_ZNSt16allocator_traitsISaISt10_List_nodeIN3net23QuicBufferedPacketStore14BufferedPacketEEEE7destroyIS3_EEvRS5_PT_.exit.i.i.i, %entry
  ret void
}